target datalayout = "e-m:e-p270:32:32-p271:32:32-p272:64:64-i64:64-i128:128-f80:128-n8:16:32:64-S128"
target triple = "x86_64-unknown-linux-gnu"

@.str = private unnamed_addr constant [1 x i8] zeroinitializer, align 1
@tcg_allowed = external global i8, align 1
@.str.1 = private unnamed_addr constant [28 x i8] c"../qemu/accel/tcg/monitor.c\00", align 1
@__func__.qmp_x_query_opcount = private unnamed_addr constant [20 x i8] c"qmp_x_query_opcount\00", align 1
@.str.3 = private unnamed_addr constant [58 x i8] c"Opcode count information is only available with accel=tcg\00", align 1
@.str.25 = private unnamed_addr constant [29 x i8] c"[TCG profiler not compiled]\0A\00", align 1

; Function Attrs: nounwind sspstrong uwtable
define internal void @g_autoptr_cleanup_gstring_free(ptr noundef %string) #0 {
entry:
  %string.addr = alloca ptr, align 8
  store ptr %string, ptr %string.addr, align 8
  %0 = load ptr, ptr %string.addr, align 8
  %tobool = icmp ne ptr %0, null
  br i1 %tobool, label %if.then, label %if.end

if.then:                                          ; preds = %entry
  %1 = load ptr, ptr %string.addr, align 8
  %call = call ptr @g_string_free(ptr noundef %1, i32 noundef 1)
  br label %if.end

if.end:                                           ; preds = %if.then, %entry
  ret void
}

; Function Attrs: nounwind sspstrong uwtable
define internal void @glib_autoptr_clear_GString(ptr noundef %_ptr) #0 {
entry:
  %_ptr.addr = alloca ptr, align 8
  store ptr %_ptr, ptr %_ptr.addr, align 8
  %0 = load ptr, ptr %_ptr.addr, align 8
  %tobool = icmp ne ptr %0, null
  br i1 %tobool, label %if.then, label %if.end

if.then:                                          ; preds = %entry
  %1 = load ptr, ptr %_ptr.addr, align 8
  call void @g_autoptr_cleanup_gstring_free(ptr noundef %1)
  br label %if.end

if.end:                                           ; preds = %if.then, %entry
  ret void
}

; Function Attrs: nounwind sspstrong uwtable
define internal void @glib_autoptr_cleanup_GString(ptr noundef %_ptr) #0 {
entry:
  %_ptr.addr = alloca ptr, align 8
  store ptr %_ptr, ptr %_ptr.addr, align 8
  %0 = load ptr, ptr %_ptr.addr, align 8
  %1 = load ptr, ptr %0, align 8
  call void @glib_autoptr_clear_GString(ptr noundef %1)
  ret void
}

; Function Attrs: nounwind sspstrong uwtable
define internal void @tcg_dump_op_count(ptr noundef %buf) #0 {
entry:
  %buf.addr = alloca ptr, align 8
  store ptr %buf, ptr %buf.addr, align 8
  %0 = load ptr, ptr %buf.addr, align 8
  call void (ptr, ptr, ...) @g_string_append_printf(ptr noundef %0, ptr noundef @.str.25)
  ret void
}

; Function Attrs: nounwind sspstrong uwtable
define dso_local ptr @qmp_x_query_opcount(ptr noundef %errp) #0 {
entry:
  %retval = alloca ptr, align 8
  %errp.addr = alloca ptr, align 8
  %buf = alloca ptr, align 8
  %cleanup.dest.slot = alloca i32, align 4
  store ptr %errp, ptr %errp.addr, align 8
  %call = call ptr @g_string_new(ptr noundef @.str)
  store ptr %call, ptr %buf, align 8
  %0 = load i8, ptr @tcg_allowed, align 1
  %tobool = trunc i8 %0 to i1
  br i1 %tobool, label %if.end, label %if.then

if.then:                                          ; preds = %entry
  %1 = load ptr, ptr %errp.addr, align 8
  call void (ptr, ptr, i32, ptr, ptr, ...) @error_setg_internal(ptr noundef %1, ptr noundef @.str.1, i32 noundef 229, ptr noundef @__func__.qmp_x_query_opcount, ptr noundef @.str.3)
  store ptr null, ptr %retval, align 8
  store i32 1, ptr %cleanup.dest.slot, align 4
  br label %cleanup

if.end:                                           ; preds = %entry
  %2 = load ptr, ptr %buf, align 8
  call void @tcg_dump_op_count(ptr noundef %2)
  %3 = load ptr, ptr %buf, align 8
  %call1 = call ptr @human_readable_text_from_str(ptr noundef %3)
  store ptr %call1, ptr %retval, align 8
  store i32 1, ptr %cleanup.dest.slot, align 4
  br label %cleanup

cleanup:                                          ; preds = %if.end, %if.then
  call void @glib_autoptr_cleanup_GString(ptr noundef %buf)
  %4 = load ptr, ptr %retval, align 8
  ret ptr %4
}