; Function Attrs: nounwind sspstrong uwtable
define dso_local ptr @qmp_x_query_opcount(ptr noundef %errp) #0 {
entry:
  %call = tail call ptr @g_string_new(ptr noundef nonnull @.str) #6
  %0 = load i8, ptr @tcg_allowed, align 1
  %tobool = trunc i8 %0 to i1
  br i1 %tobool, label %if.end, label %if.then

if.then:                                          ; preds = %entry
  tail call void (ptr, ptr, i32, ptr, ptr, ...) @error_setg_internal(ptr noundef %errp, ptr noundef nonnull @.str.1, i32 noundef 229, ptr noundef nonnull @__func__.qmp_x_query_opcount, ptr noundef nonnull @.str.3) #6
  br label %cleanup

if.end:                                           ; preds = %entry
  tail call void (ptr, ptr, ...) @g_string_append_printf(ptr noundef %call, ptr noundef nonnull @.str.25) #6
  %call1 = tail call ptr @human_readable_text_from_str(ptr noundef %call) #6
  br label %cleanup

cleanup:                                          ; preds = %if.end, %if.then
  %retval.0 = phi ptr [ %call1, %if.end ], [ null, %if.then ]
  %tobool.not.i.i = icmp eq ptr %call, null
  br i1 %tobool.not.i.i, label %glib_autoptr_cleanup_GString.exit, label %if.then.i.i

if.then.i.i:                                      ; preds = %cleanup
  %call.i.i.i = tail call ptr @g_string_free(ptr noundef nonnull %call, i32 noundef 1) #6
  br label %glib_autoptr_cleanup_GString.exit

glib_autoptr_cleanup_GString.exit:                ; preds = %cleanup, %if.then.i.i
  ret ptr %retval.0
}